; Function Attrs: nounwind uwtable
define dso_local void @store_flush_position(i64 noundef %0, i64 noundef %1) local_unnamed_addr #0 {
  %3 = load ptr, ptr @MyLogicalRepWorker, align 8
  %4 = getelementptr inbounds nuw i8, ptr %3, i64 16
  %5 = load i8, ptr %4, align 8, !range !4, !noundef !5
  %6 = trunc nuw i8 %5 to i1
  br i1 %6, label %am_parallel_apply_worker.exit, label %am_parallel_apply_worker.exit.thread

am_parallel_apply_worker.exit:                    ; preds = %2
  %7 = load i32, ptr %3, align 8
  %8 = icmp eq i32 %7, 3
  br i1 %8, label %20, label %am_parallel_apply_worker.exit.thread

am_parallel_apply_worker.exit.thread:             ; preds = %2, %am_parallel_apply_worker.exit
  %9 = load ptr, ptr @ApplyContext, align 8
  store ptr %9, ptr @CurrentMemoryContext, align 8
  %10 = tail call ptr @palloc(i64 noundef 32) #17
  %11 = getelementptr inbounds nuw i8, ptr %10, i64 16
  store i64 %1, ptr %11, align 8
  %12 = getelementptr inbounds nuw i8, ptr %10, i64 24
  store i64 %0, ptr %12, align 8
  %13 = load ptr, ptr getelementptr inbounds nuw (i8, ptr @lsn_mapping, i64 8), align 8
  %14 = icmp eq ptr %13, null
  br i1 %14, label %15, label %._crit_edge.i

._crit_edge.i:                                    ; preds = %am_parallel_apply_worker.exit.thread
  %.pre.i = load ptr, ptr @lsn_mapping, align 8
  br label %dlist_push_tail.exit

15:                                               ; preds = %am_parallel_apply_worker.exit.thread
  store ptr @lsn_mapping, ptr getelementptr inbounds nuw (i8, ptr @lsn_mapping, i64 8), align 8
  br label %dlist_push_tail.exit

dlist_push_tail.exit:                             ; preds = %._crit_edge.i, %15
  %16 = phi ptr [ %.pre.i, %._crit_edge.i ], [ @lsn_mapping, %15 ]
  %17 = getelementptr inbounds nuw i8, ptr %10, i64 8
  store ptr @lsn_mapping, ptr %17, align 8
  store ptr %16, ptr %10, align 8
  %18 = getelementptr inbounds nuw i8, ptr %16, i64 8
  store ptr %10, ptr %18, align 8
  store ptr %10, ptr @lsn_mapping, align 8
  %19 = load ptr, ptr @ApplyMessageContext, align 8
  store ptr %19, ptr @CurrentMemoryContext, align 8
  br label %20

20:                                               ; preds = %am_parallel_apply_worker.exit, %dlist_push_tail.exit
  ret void
}